opt subtitle "HI-TECH Software Omniscient Code Generator (Lite mode) build 9453"

opt pagewidth 120

	opt lm

	processor	16F877A
clrc	macro
	bcf	3,0
	endm
clrz	macro
	bcf	3,2
	endm
setc	macro
	bsf	3,0
	endm
setz	macro
	bsf	3,2
	endm
skipc	macro
	btfss	3,0
	endm
skipz	macro
	btfss	3,2
	endm
skipnc	macro
	btfsc	3,0
	endm
skipnz	macro
	btfsc	3,2
	endm
indf	equ	0
indf0	equ	0
pc	equ	2
pcl	equ	2
status	equ	3
fsr	equ	4
fsr0	equ	4
c	equ	1
z	equ	0
pclath	equ	10
	FNROOT	_main
	global	_PORTD
psect	maintext,global,class=CODE,delta=2
global __pmaintext
__pmaintext:
_PORTD	set	8
	global	_CARRY
_CARRY	set	24
	global	_GIE
_GIE	set	95
	global	_RA0
_RA0	set	40
	global	_RB0
_RB0	set	48
	global	_RB1
_RB1	set	49
	global	_RB2
_RB2	set	50
	global	_RC0
_RC0	set	56
	global	_RD0
_RD0	set	64
	global	_RD1
_RD1	set	65
	global	_TRISC
_TRISC	set	135
	global	_TRISD
_TRISD	set	136
	global	_TRISA0
_TRISA0	set	1064
	global	_TRISB0
_TRISB0	set	1072
	global	_TRISB1
_TRISB1	set	1073
	global	_TRISB2
_TRISB2	set	1074
	global	_TRISC0
_TRISC0	set	1080
	global	_TRISD0
_TRISD0	set	1088
	global	_TRISD1
_TRISD1	set	1089
	global	_EEADR
_EEADR	set	269
	global	_EEDATA
_EEDATA	set	268
	global	_EECON1
_EECON1	set	396
	global	_EECON2
_EECON2	set	397
	global	_RD
_RD	set	3168
	global	_WR
_WR	set	3169
	global	_WREN
_WREN	set	3170
	file	"INPUT_OUTPUT_TUTORIAL.as"
	line	#
psect cinit,class=CODE,delta=2
global start_initialization
start_initialization:

psect cinit,class=CODE,delta=2
global end_of_initialization

;End of C runtime variable initialization code

end_of_initialization:
clrf status
ljmp _main	;jump to C main() function
psect	cstackCOMMON,class=COMMON,space=1
global __pcstackCOMMON
__pcstackCOMMON:
	global	??_main
??_main:	; 0 bytes @ 0x0
	global	?_main
?_main:	; 2 bytes @ 0x0
	ds	3
;;Data sizes: Strings 0, constant 0, data 0, bss 0, persistent 0 stack 0
;;Auto spaces:   Size  Autos    Used
;; COMMON          14      3       3
;; BANK0           80      0       0
;; BANK1           80      0       0
;; BANK3           96      0       0
;; BANK2           96      0       0

;;
;; Pointer list with targets:



;;
;; Critical Paths under _main in COMMON
;;
;;   None.
;;
;; Critical Paths under _main in BANK0
;;
;;   None.
;;
;; Critical Paths under _main in BANK1
;;
;;   None.
;;
;; Critical Paths under _main in BANK3
;;
;;   None.
;;
;; Critical Paths under _main in BANK2
;;
;;   None.

;;
;;Main: autosize = 0, tempsize = 3, incstack = 0, save=0
;;

;;
;;Call Graph Tables:
;;
;; ---------------------------------------------------------------------------------
;; (Depth) Function   	        Calls       Base Space   Used Autos Params    Refs
;; ---------------------------------------------------------------------------------
;; (0) _main                                                 3     3      0       0
;;                                              0 COMMON     3     3      0
;; ---------------------------------------------------------------------------------
;; Estimated maximum stack depth 0
;; ---------------------------------------------------------------------------------

;; Call Graph Graphs:

;; _main (ROOT)
;;

;; Address spaces:

;;Name               Size   Autos  Total    Cost      Usage
;;BITCOMMON            E      0       0       0        0.0%
;;EEDATA             100      0       0       0        0.0%
;;NULL                 0      0       0       0        0.0%
;;CODE                 0      0       0       0        0.0%
;;COMMON               E      3       3       1       21.4%
;;BITSFR0              0      0       0       1        0.0%
;;SFR0                 0      0       0       1        0.0%
;;BITSFR1              0      0       0       2        0.0%
;;SFR1                 0      0       0       2        0.0%
;;STACK                0      0       0       2        0.0%
;;ABS                  0      0       0       3        0.0%
;;BITBANK0            50      0       0       4        0.0%
;;BITSFR3              0      0       0       4        0.0%
;;SFR3                 0      0       0       4        0.0%
;;BANK0               50      0       0       5        0.0%
;;BITSFR2              0      0       0       5        0.0%
;;SFR2                 0      0       0       5        0.0%
;;BITBANK1            50      0       0       6        0.0%
;;BANK1               50      0       0       7        0.0%
;;BITBANK3            60      0       0       8        0.0%
;;BANK3               60      0       0       9        0.0%
;;BITBANK2            60      0       0      10        0.0%
;;BANK2               60      0       0      11        0.0%
;;DATA                 0      0       0      12        0.0%

	global	_main
psect	maintext

;; *************** function _main *****************
;; Defined at:
;;		line 11 in file "C:\Users\www\Desktop\PIC16F877A\INPUT_OUTPUT_TUTORIAL\Main.c"
;; Parameters:    Size  Location     Type
;;		None
;; Auto vars:     Size  Location     Type
;;		None
;; Return value:  Size  Location     Type
;;                  2  686[COMMON] int 
;; Registers used:
;;		wreg
;; Tracked objects:
;;		On entry : 17F/0
;;		On exit  : 0/0
;;		Unchanged: 0/0
;; Data sizes:     COMMON   BANK0   BANK1   BANK3   BANK2
;;      Params:         0       0       0       0       0
;;      Locals:         0       0       0       0       0
;;      Temps:          3       0       0       0       0
;;      Totals:         3       0       0       0       0
;;Total ram usage:        3 bytes
;; This function calls:
;;		Nothing
;; This function is called by:
;;		Startup code after reset
;; This function uses a non-reentrant model
;;
psect	maintext
	file	"C:\Users\www\Desktop\PIC16F877A\INPUT_OUTPUT_TUTORIAL\Main.c"
	line	11
	global	__size_of_main
	__size_of_main	equ	__end_of_main-_main
	
_main:	
	opt	stack 8
; Regs used in _main: [wreg]
	line	13
	
l2653:	
;Main.c: 13: TRISB0 = 0x01;
	bsf	status, 5	;RP0=1, select bank1
	bcf	status, 6	;RP1=0, select bank1
	bsf	(1072/8)^080h,(1072)&7
	line	14
;Main.c: 14: TRISB1 = 0x01;
	bsf	(1073/8)^080h,(1073)&7
	line	15
;Main.c: 15: TRISD0 = 0x00;
	bcf	(1088/8)^080h,(1088)&7
	line	16
;Main.c: 16: TRISD1 = 0x00;
	bcf	(1089/8)^080h,(1089)&7
	line	17
;Main.c: 17: while(0x01){
	
l687:	
	line	18
;Main.c: 18: RD0 = 0x00;
	bcf	status, 5	;RP0=0, select bank0
	bcf	status, 6	;RP1=0, select bank0
	bcf	(64/8),(64)&7
	line	19
;Main.c: 19: RD1 = 0x00;
	bcf	(65/8),(65)&7
	line	20
;Main.c: 20: if((RB0 = 0x00) == 0x01){
	bcf	(48/8),(48)&7
	btfss	(48/8),(48)&7
	goto	u2231
	goto	u2230
u2231:
	goto	l688
u2230:
	line	21
	
l2655:	
;Main.c: 21: RD0 = 0x01;
	bsf	(64/8),(64)&7
	line	22
	
l688:	
	line	23
;Main.c: 22: }
;Main.c: 23: if((RB1 = 0x00) == 0x00){
	bcf	(49/8),(49)&7
	btfsc	(49/8),(49)&7
	goto	u2241
	goto	u2240
u2241:
	goto	l2659
u2240:
	line	24
	
l2657:	
;Main.c: 24: RD1 = 0x01;
	bsf	(65/8),(65)&7
	goto	l2659
	line	25
	
l689:	
	line	26
	
l2659:	
;Main.c: 25: }
;Main.c: 26: _delay((unsigned long)((50)*(20000000/4000.0)));
	opt asmopt_off
movlw  2
movwf	((??_main+0)+0+2),f
movlw	69
movwf	((??_main+0)+0+1),f
	movlw	169
movwf	((??_main+0)+0),f
u2257:
	decfsz	((??_main+0)+0),f
	goto	u2257
	decfsz	((??_main+0)+0+1),f
	goto	u2257
	decfsz	((??_main+0)+0+2),f
	goto	u2257
	nop2
opt asmopt_on

	goto	l687
	line	27
	
l690:	
	line	17
	goto	l687
	
l691:	
	line	29
;Main.c: 27: }
;Main.c: 28: return 0;
;	Return value of _main is never used
	
l692:	
	global	start
	ljmp	start
	opt stack 0
GLOBAL	__end_of_main
	__end_of_main:
;; =============== function _main ends ============

	signat	_main,90
psect	maintext
	global	btemp
	btemp set 07Eh

	DABS	1,126,2	;btemp
	global	wtemp0
	wtemp0 set btemp
	end
